target datalayout = "e-m:e-p270:32:32-p271:32:32-p272:64:64-i64:64-i128:128-f80:128-n8:16:32:64-S128"
target triple = "x86_64-pc-linux-gnu"

%struct.colopt = type { ptr, i32, i32 }

@.str.15 = private unnamed_addr constant [3 x i8] c" ,\00", align 1
@.str.22 = private unnamed_addr constant [3 x i8] c"no\00", align 1
@.str.23 = private unnamed_addr constant [24 x i8] c"unsupported option '%s'\00", align 1

; Function Attrs: inlinehint nounwind uwtable
define internal i32 @const_error() #5 {
  ret i32 -1
}

; Function Attrs: nounwind uwtable
define internal i32 @parse_option(ptr noundef %0, i32 noundef %1, ptr noundef %2, ptr noundef %3) #0 {
  %5 = alloca i32, align 4
  %6 = alloca ptr, align 8
  %7 = alloca i32, align 4
  %8 = alloca ptr, align 8
  %9 = alloca ptr, align 8
  %10 = alloca [7 x %struct.colopt], align 16
  %11 = alloca i32, align 4
  %12 = alloca i32, align 4
  %13 = alloca i32, align 4
  %14 = alloca i32, align 4
  %15 = alloca ptr, align 8
  %16 = alloca i32, align 4
  store ptr %0, ptr %6, align 8, !tbaa !23
  store i32 %1, ptr %7, align 4, !tbaa !9
  store ptr %2, ptr %8, align 8, !tbaa !41
  store ptr %3, ptr %9, align 8, !tbaa !41
  call void @llvm.lifetime.start.p0(i64 112, ptr %10) #9
  call void @llvm.memcpy.p0.p0.i64(ptr align 16 %10, ptr align 16 @__const.parse_option.opts, i64 112, i1 false)
  call void @llvm.lifetime.start.p0(i64 4, ptr %11) #9
  store i32 0, ptr %11, align 4, !tbaa !9
  br label %17

17:                                               ; preds = %130, %4
  %18 = load i32, ptr %11, align 4, !tbaa !9
  %19 = sext i32 %18 to i64
  %20 = icmp ult i64 %19, 7
  br i1 %20, label %21, label %133

21:                                               ; preds = %17
  call void @llvm.lifetime.start.p0(i64 4, ptr %12) #9
  store i32 1, ptr %12, align 4, !tbaa !9
  call void @llvm.lifetime.start.p0(i64 4, ptr %13) #9
  %22 = load i32, ptr %7, align 4, !tbaa !9
  store i32 %22, ptr %13, align 4, !tbaa !9
  call void @llvm.lifetime.start.p0(i64 4, ptr %14) #9
  call void @llvm.lifetime.start.p0(i64 8, ptr %15) #9
  %23 = load ptr, ptr %6, align 8, !tbaa !23
  store ptr %23, ptr %15, align 8, !tbaa !23
  %24 = load i32, ptr %11, align 4, !tbaa !9
  %25 = sext i32 %24 to i64
  %26 = getelementptr inbounds [7 x %struct.colopt], ptr %10, i64 0, i64 %25
  %27 = getelementptr inbounds nuw %struct.colopt, ptr %26, i32 0, i32 2
  %28 = load i32, ptr %27, align 4, !tbaa !71
  %29 = icmp ne i32 %28, 0
  br i1 %29, label %43, label %30

30:                                               ; preds = %21
  %31 = load i32, ptr %13, align 4, !tbaa !9
  %32 = icmp sgt i32 %31, 2
  br i1 %32, label %33, label %42

33:                                               ; preds = %30
  %34 = load ptr, ptr %15, align 8, !tbaa !23
  %35 = call i32 @strncmp(ptr noundef %34, ptr noundef @.str.22, i64 noundef 2) #11
  %36 = icmp ne i32 %35, 0
  br i1 %36, label %42, label %37

37:                                               ; preds = %33
  %38 = load ptr, ptr %15, align 8, !tbaa !23
  %39 = getelementptr inbounds i8, ptr %38, i64 2
  store ptr %39, ptr %15, align 8, !tbaa !23
  %40 = load i32, ptr %13, align 4, !tbaa !9
  %41 = sub nsw i32 %40, 2
  store i32 %41, ptr %13, align 4, !tbaa !9
  store i32 0, ptr %12, align 4, !tbaa !9
  br label %42

42:                                               ; preds = %37, %33, %30
  br label %43

43:                                               ; preds = %42, %21
  %44 = load i32, ptr %11, align 4, !tbaa !9
  %45 = sext i32 %44 to i64
  %46 = getelementptr inbounds [7 x %struct.colopt], ptr %10, i64 0, i64 %45
  %47 = getelementptr inbounds nuw %struct.colopt, ptr %46, i32 0, i32 0
  %48 = load ptr, ptr %47, align 16, !tbaa !73
  %49 = call i64 @strlen(ptr noundef %48) #11
  %50 = trunc i64 %49 to i32
  store i32 %50, ptr %14, align 4, !tbaa !9
  %51 = load i32, ptr %13, align 4, !tbaa !9
  %52 = load i32, ptr %14, align 4, !tbaa !9
  %53 = icmp ne i32 %51, %52
  br i1 %53, label %65, label %54

54:                                               ; preds = %43
  %55 = load ptr, ptr %15, align 8, !tbaa !23
  %56 = load i32, ptr %11, align 4, !tbaa !9
  %57 = sext i32 %56 to i64
  %58 = getelementptr inbounds [7 x %struct.colopt], ptr %10, i64 0, i64 %57
  %59 = getelementptr inbounds nuw %struct.colopt, ptr %58, i32 0, i32 0
  %60 = load ptr, ptr %59, align 16, !tbaa !73
  %61 = load i32, ptr %14, align 4, !tbaa !9
  %62 = sext i32 %61 to i64
  %63 = call i32 @strncmp(ptr noundef %55, ptr noundef %60, i64 noundef %62) #11
  %64 = icmp ne i32 %63, 0
  br i1 %64, label %65, label %66

65:                                               ; preds = %54, %43
  store i32 4, ptr %16, align 4
  br label %128

66:                                               ; preds = %54
  %67 = load i32, ptr %11, align 4, !tbaa !9
  %68 = sext i32 %67 to i64
  %69 = getelementptr inbounds [7 x %struct.colopt], ptr %10, i64 0, i64 %68
  %70 = getelementptr inbounds nuw %struct.colopt, ptr %69, i32 0, i32 2
  %71 = load i32, ptr %70, align 4, !tbaa !71
  switch i32 %71, label %80 [
    i32 48, label %72
    i32 15, label %76
  ]

72:                                               ; preds = %66
  %73 = load ptr, ptr %9, align 8, !tbaa !41
  %74 = load i32, ptr %73, align 4, !tbaa !9
  %75 = or i32 %74, 2
  store i32 %75, ptr %73, align 4, !tbaa !9
  br label %80

76:                                               ; preds = %66
  %77 = load ptr, ptr %9, align 8, !tbaa !41
  %78 = load i32, ptr %77, align 4, !tbaa !9
  %79 = or i32 %78, 1
  store i32 %79, ptr %77, align 4, !tbaa !9
  br label %80

80:                                               ; preds = %66, %76, %72
  %81 = load i32, ptr %11, align 4, !tbaa !9
  %82 = sext i32 %81 to i64
  %83 = getelementptr inbounds [7 x %struct.colopt], ptr %10, i64 0, i64 %82
  %84 = getelementptr inbounds nuw %struct.colopt, ptr %83, i32 0, i32 2
  %85 = load i32, ptr %84, align 4, !tbaa !71
  %86 = icmp ne i32 %85, 0
  br i1 %86, label %87, label %104

87:                                               ; preds = %80
  %88 = load ptr, ptr %8, align 8, !tbaa !41
  %89 = load i32, ptr %88, align 4, !tbaa !9
  %90 = load i32, ptr %11, align 4, !tbaa !9
  %91 = sext i32 %90 to i64
  %92 = getelementptr inbounds [7 x %struct.colopt], ptr %10, i64 0, i64 %91
  %93 = getelementptr inbounds nuw %struct.colopt, ptr %92, i32 0, i32 2
  %94 = load i32, ptr %93, align 4, !tbaa !71
  %95 = xor i32 %94, -1
  %96 = and i32 %89, %95
  %97 = load i32, ptr %11, align 4, !tbaa !9
  %98 = sext i32 %97 to i64
  %99 = getelementptr inbounds [7 x %struct.colopt], ptr %10, i64 0, i64 %98
  %100 = getelementptr inbounds nuw %struct.colopt, ptr %99, i32 0, i32 1
  %101 = load i32, ptr %100, align 8, !tbaa !74
  %102 = or i32 %96, %101
  %103 = load ptr, ptr %8, align 8, !tbaa !41
  store i32 %102, ptr %103, align 4, !tbaa !9
  br label %127

104:                                              ; preds = %80
  %105 = load i32, ptr %12, align 4, !tbaa !9
  %106 = icmp ne i32 %105, 0
  br i1 %106, label %107, label %116

107:                                              ; preds = %104
  %108 = load i32, ptr %11, align 4, !tbaa !9
  %109 = sext i32 %108 to i64
  %110 = getelementptr inbounds [7 x %struct.colopt], ptr %10, i64 0, i64 %109
  %111 = getelementptr inbounds nuw %struct.colopt, ptr %110, i32 0, i32 1
  %112 = load i32, ptr %111, align 8, !tbaa !74
  %113 = load ptr, ptr %8, align 8, !tbaa !41
  %114 = load i32, ptr %113, align 4, !tbaa !9
  %115 = or i32 %114, %112
  store i32 %115, ptr %113, align 4, !tbaa !9
  br label %126

116:                                              ; preds = %104
  %117 = load i32, ptr %11, align 4, !tbaa !9
  %118 = sext i32 %117 to i64
  %119 = getelementptr inbounds [7 x %struct.colopt], ptr %10, i64 0, i64 %118
  %120 = getelementptr inbounds nuw %struct.colopt, ptr %119, i32 0, i32 1
  %121 = load i32, ptr %120, align 8, !tbaa !74
  %122 = xor i32 %121, -1
  %123 = load ptr, ptr %8, align 8, !tbaa !41
  %124 = load i32, ptr %123, align 4, !tbaa !9
  %125 = and i32 %124, %122
  store i32 %125, ptr %123, align 4, !tbaa !9
  br label %126

126:                                              ; preds = %116, %107
  br label %127

127:                                              ; preds = %126, %87
  store i32 0, ptr %5, align 4
  store i32 1, ptr %16, align 4
  br label %128

128:                                              ; preds = %127, %65
  call void @llvm.lifetime.end.p0(i64 8, ptr %15) #9
  call void @llvm.lifetime.end.p0(i64 4, ptr %14) #9
  call void @llvm.lifetime.end.p0(i64 4, ptr %13) #9
  call void @llvm.lifetime.end.p0(i64 4, ptr %12) #9
  %129 = load i32, ptr %16, align 4
  switch i32 %129, label %137 [
    i32 4, label %130
  ]

130:                                              ; preds = %128
  %131 = load i32, ptr %11, align 4, !tbaa !9
  %132 = add nsw i32 %131, 1
  store i32 %132, ptr %11, align 4, !tbaa !9
  br label %17, !llvm.loop !75

133:                                              ; preds = %17
  %134 = load ptr, ptr %6, align 8, !tbaa !23
  %135 = call i32 (ptr, ...) @error(ptr noundef @.str.23, ptr noundef %134)
  %136 = call i32 @const_error()
  store i32 %136, ptr %5, align 4
  store i32 1, ptr %16, align 4
  br label %137

137:                                              ; preds = %133, %128
  call void @llvm.lifetime.end.p0(i64 4, ptr %11) #9
  call void @llvm.lifetime.end.p0(i64 112, ptr %10) #9
  %138 = load i32, ptr %5, align 4
  ret i32 %138
}

; Function Attrs: nounwind uwtable
define internal i32 @parse_config(ptr noundef %0, ptr noundef %1) #0 {
  %3 = alloca i32, align 4
  %4 = alloca ptr, align 8
  %5 = alloca ptr, align 8
  %6 = alloca ptr, align 8
  %7 = alloca i32, align 4
  %8 = alloca i32, align 4
  %9 = alloca i32, align 4
  store ptr %0, ptr %4, align 8, !tbaa !41
  store ptr %1, ptr %5, align 8, !tbaa !23
  call void @llvm.lifetime.start.p0(i64 8, ptr %6) #9
  store ptr @.str.15, ptr %6, align 8, !tbaa !23
  call void @llvm.lifetime.start.p0(i64 4, ptr %7) #9
  store i32 0, ptr %7, align 4, !tbaa !9
  br label %10

10:                                               ; preds = %41, %2
  %11 = load ptr, ptr %5, align 8, !tbaa !23
  %12 = load i8, ptr %11, align 1, !tbaa !44
  %13 = icmp ne i8 %12, 0
  br i1 %13, label %14, label %42

14:                                               ; preds = %10
  call void @llvm.lifetime.start.p0(i64 4, ptr %8) #9
  %15 = load ptr, ptr %5, align 8, !tbaa !23
  %16 = load ptr, ptr %6, align 8, !tbaa !23
  %17 = call i64 @strcspn(ptr noundef %15, ptr noundef %16) #11
  %18 = trunc i64 %17 to i32
  store i32 %18, ptr %8, align 4, !tbaa !9
  %19 = load i32, ptr %8, align 4, !tbaa !9
  %20 = icmp ne i32 %19, 0
  br i1 %20, label %21, label %33

21:                                               ; preds = %14
  %22 = load ptr, ptr %5, align 8, !tbaa !23
  %23 = load i32, ptr %8, align 4, !tbaa !9
  %24 = load ptr, ptr %4, align 8, !tbaa !41
  %25 = call i32 @parse_option(ptr noundef %22, i32 noundef %23, ptr noundef %24, ptr noundef %7)
  %26 = icmp ne i32 %25, 0
  br i1 %26, label %27, label %28

27:                                               ; preds = %21
  store i32 -1, ptr %3, align 4
  store i32 1, ptr %9, align 4
  br label %39

28:                                               ; preds = %21
  %29 = load i32, ptr %8, align 4, !tbaa !9
  %30 = load ptr, ptr %5, align 8, !tbaa !23
  %31 = sext i32 %29 to i64
  %32 = getelementptr inbounds i8, ptr %30, i64 %31
  store ptr %32, ptr %5, align 8, !tbaa !23
  br label %33

33:                                               ; preds = %28, %14
  %34 = load ptr, ptr %5, align 8, !tbaa !23
  %35 = load ptr, ptr %6, align 8, !tbaa !23
  %36 = call i64 @strspn(ptr noundef %34, ptr noundef %35) #11
  %37 = load ptr, ptr %5, align 8, !tbaa !23
  %38 = getelementptr inbounds nuw i8, ptr %37, i64 %36
  store ptr %38, ptr %5, align 8, !tbaa !23
  store i32 0, ptr %9, align 4
  br label %39

39:                                               ; preds = %33, %27
  call void @llvm.lifetime.end.p0(i64 4, ptr %8) #9
  %40 = load i32, ptr %9, align 4
  switch i32 %40, label %57 [
    i32 0, label %41
  ]

41:                                               ; preds = %39
  br label %10, !llvm.loop !50

42:                                               ; preds = %10
  %43 = load i32, ptr %7, align 4, !tbaa !9
  %44 = and i32 %43, 1
  %45 = icmp ne i32 %44, 0
  br i1 %45, label %46, label %56

46:                                               ; preds = %42
  %47 = load i32, ptr %7, align 4, !tbaa !9
  %48 = and i32 %47, 2
  %49 = icmp ne i32 %48, 0
  br i1 %49, label %56, label %50

50:                                               ; preds = %46
  %51 = load ptr, ptr %4, align 8, !tbaa !41
  %52 = load i32, ptr %51, align 4, !tbaa !9
  %53 = and i32 %52, -49
  %54 = or i32 %53, 16
  %55 = load ptr, ptr %4, align 8, !tbaa !41
  store i32 %54, ptr %55, align 4, !tbaa !9
  br label %56

56:                                               ; preds = %50, %46, %42
  store i32 0, ptr %3, align 4
  store i32 1, ptr %9, align 4
  br label %57

57:                                               ; preds = %56, %39
  call void @llvm.lifetime.end.p0(i64 4, ptr %7) #9
  call void @llvm.lifetime.end.p0(i64 8, ptr %6) #9
  %58 = load i32, ptr %3, align 4
  ret i32 %58
}