; Function Attrs: nounwind uwtable
define internal fastcc range(i32 -1, 1) i32 @parse_config(ptr noundef captures(none) %0, ptr noundef nonnull %1) unnamed_addr #0 {
  %3 = load i8, ptr %1, align 1, !tbaa !31
  %.not55 = icmp eq i8 %3, 0
  br i1 %.not55, label %._crit_edge.thread, label %.lr.ph

.lr.ph:                                           ; preds = %2, %65
  %4 = phi i8 [ %68, %65 ], [ %3, %2 ]
  %.01657 = phi ptr [ %67, %65 ], [ %1, %2 ]
  %.056 = phi i32 [ %.1, %65 ], [ 0, %2 ]
  %5 = tail call i64 @strcspn(ptr noundef nonnull %.01657, ptr noundef nonnull @.str.15) #11
  %6 = trunc i64 %5 to i32
  %.not22 = icmp eq i32 %6, 0
  br i1 %.not22, label %65, label %7

7:                                                ; preds = %.lr.ph
  %8 = icmp sgt i32 %6, 2
  %9 = getelementptr inbounds nuw i8, ptr %.01657, i64 1
  %10 = getelementptr inbounds nuw i8, ptr %.01657, i64 2
  %11 = add nsw i32 %6, -2
  br i1 %8, label %.split.i.preheader, label %.split.us.i

.split.i.preheader:                               ; preds = %7
  %.fr = freeze i8 %4
  %.not57.i = icmp eq i8 %.fr, 110
  br i1 %.not57.i, label %.split.i, label %.split.i.us

.split.i.us:                                      ; preds = %.split.i.preheader, %.critedge.i.us
  %indvars.iv68.i.us = phi i64 [ %indvars.iv.next69.i.us, %.critedge.i.us ], [ 0, %.split.i.preheader ]
  %12 = getelementptr inbounds nuw [7 x %struct.colopt], ptr @__const.parse_option.opts, i64 0, i64 %indvars.iv68.i.us
  %13 = load ptr, ptr %12, align 16, !tbaa !35
  %14 = tail call i64 @strlen(ptr noundef nonnull dereferenceable(1) %13) #11
  %15 = trunc i64 %14 to i32
  %.not40.i.us = icmp eq i32 %6, %15
  br i1 %.not40.i.us, label %16, label %.critedge.i.us

16:                                               ; preds = %.split.i.us
  %sext.i.us = shl i64 %14, 32
  %17 = ashr exact i64 %sext.i.us, 32
  %18 = tail call i32 @strncmp(ptr noundef nonnull %.01657, ptr noundef nonnull %13, i64 noundef %17) #11
  %.not41.i.us = icmp eq i32 %18, 0
  br i1 %.not41.i.us, label %.split48.i.sink.split, label %.critedge.i.us

.critedge.i.us:                                   ; preds = %16, %.split.i.us
  %indvars.iv.next69.i.us = add nuw nsw i64 %indvars.iv68.i.us, 1
  %exitcond71.not.i.us = icmp eq i64 %indvars.iv.next69.i.us, 7
  br i1 %exitcond71.not.i.us, label %.thread, label %.split.i.us, !llvm.loop !37

.split.us.i:                                      ; preds = %7, %.critedge.us.i
  %indvars.iv.i = phi i64 [ %indvars.iv.next.i, %.critedge.us.i ], [ 0, %7 ]
  %19 = getelementptr inbounds nuw [7 x %struct.colopt], ptr @__const.parse_option.opts, i64 0, i64 %indvars.iv.i
  %20 = load ptr, ptr %19, align 16, !tbaa !35
  %21 = tail call i64 @strlen(ptr noundef nonnull dereferenceable(1) %20) #11
  %22 = trunc i64 %21 to i32
  %.not40.us.i = icmp eq i32 %6, %22
  br i1 %.not40.us.i, label %23, label %.critedge.us.i

23:                                               ; preds = %.split.us.i
  %sext.us.i = shl i64 %21, 32
  %24 = ashr exact i64 %sext.us.i, 32
  %25 = tail call i32 @strncmp(ptr noundef nonnull %.01657, ptr noundef nonnull %20, i64 noundef %24) #11
  %.not41.us.i = icmp eq i32 %25, 0
  br i1 %.not41.us.i, label %.split48.i.sink.split, label %.critedge.us.i

.critedge.us.i:                                   ; preds = %23, %.split.us.i
  %indvars.iv.next.i = add nuw nsw i64 %indvars.iv.i, 1
  %exitcond.not.i = icmp eq i64 %indvars.iv.next.i, 7
  br i1 %exitcond.not.i, label %.thread, label %.split.us.i, !llvm.loop !37

.split.i:                                         ; preds = %.split.i.preheader, %.critedge.i
  %indvars.iv68.i = phi i64 [ %indvars.iv.next69.i, %.critedge.i ], [ 0, %.split.i.preheader ]
  %26 = getelementptr inbounds nuw [7 x %struct.colopt], ptr @__const.parse_option.opts, i64 0, i64 %indvars.iv68.i
  %27 = getelementptr inbounds nuw i8, ptr %26, i64 12
  %28 = load i32, ptr %27, align 4, !tbaa !38
  %29 = icmp eq i32 %28, 0
  br i1 %29, label %.tail.i, label %.tail.thread.i

.tail.i:                                          ; preds = %.split.i
  %30 = load i8, ptr %9, align 1
  %31 = icmp eq i8 %30, 111
  br i1 %31, label %32, label %.tail.thread.i

32:                                               ; preds = %.tail.i
  br label %.tail.thread.i

.tail.thread.i:                                   ; preds = %32, %.tail.i, %.split.i
  %.not43.i = phi i1 [ false, %.tail.i ], [ true, %32 ], [ false, %.split.i ]
  %.033.i = phi i32 [ %6, %.tail.i ], [ %11, %32 ], [ %6, %.split.i ]
  %.031.i = phi ptr [ %.01657, %.tail.i ], [ %10, %32 ], [ %.01657, %.split.i ]
  %33 = load ptr, ptr %26, align 16, !tbaa !35
  %34 = tail call i64 @strlen(ptr noundef nonnull dereferenceable(1) %33) #11
  %35 = trunc i64 %34 to i32
  %.not40.i = icmp eq i32 %.033.i, %35
  br i1 %.not40.i, label %36, label %.critedge.i

36:                                               ; preds = %.tail.thread.i
  %sext.i = shl i64 %34, 32
  %37 = ashr exact i64 %sext.i, 32
  %38 = tail call i32 @strncmp(ptr noundef nonnull %.031.i, ptr noundef nonnull %33, i64 noundef %37) #11
  %.not41.i = icmp eq i32 %38, 0
  br i1 %.not41.i, label %.split48.i, label %.critedge.i

.split48.i.sink.split:                            ; preds = %23, %16
  %.lcssa80.sink = phi ptr [ %12, %16 ], [ %19, %23 ]
  %39 = getelementptr inbounds nuw i8, ptr %.lcssa80.sink, i64 12
  %40 = load i32, ptr %39, align 4, !tbaa !38
  %41 = icmp eq i32 %40, 0
  br label %.split48.i

.split48.i:                                       ; preds = %36, %.split48.i.sink.split
  %.us-phi.i = phi i1 [ false, %.split48.i.sink.split ], [ %.not43.i, %36 ]
  %.us-phi49.i = phi ptr [ %.lcssa80.sink, %.split48.i.sink.split ], [ %26, %36 ]
  %.us-phi50.i = phi i32 [ %40, %.split48.i.sink.split ], [ %28, %36 ]
  %.us-phi51.i = phi i1 [ %41, %.split48.i.sink.split ], [ %29, %36 ]
  switch i32 %.us-phi50.i, label %43 [
    i32 48, label %.thread.sink.split.i
    i32 15, label %42
  ]

42:                                               ; preds = %.split48.i
  br label %.thread.sink.split.i

43:                                               ; preds = %.split48.i
  br i1 %.us-phi51.i, label %51, label %.thread.i

.thread.sink.split.i:                             ; preds = %42, %.split48.i
  %.sink83.i = phi i32 [ 1, %42 ], [ 2, %.split48.i ]
  %44 = or i32 %.sink83.i, %.056
  br label %.thread.i

.thread.i:                                        ; preds = %.thread.sink.split.i, %43
  %.3 = phi i32 [ %.056, %43 ], [ %44, %.thread.sink.split.i ]
  %45 = load i32, ptr %0, align 4, !tbaa !23
  %46 = xor i32 %.us-phi50.i, -1
  %47 = and i32 %45, %46
  %48 = getelementptr inbounds nuw i8, ptr %.us-phi49.i, i64 8
  %49 = load i32, ptr %48, align 8, !tbaa !39
  %50 = or i32 %47, %49
  br label %62

51:                                               ; preds = %43
  %52 = getelementptr inbounds nuw i8, ptr %.us-phi49.i, i64 8
  %53 = load i32, ptr %52, align 8, !tbaa !39
  br i1 %.us-phi.i, label %57, label %54

54:                                               ; preds = %51
  %55 = load i32, ptr %0, align 4, !tbaa !23
  %56 = or i32 %55, %53
  br label %62

57:                                               ; preds = %51
  %58 = xor i32 %53, -1
  %59 = load i32, ptr %0, align 4, !tbaa !23
  %60 = and i32 %59, %58
  br label %62

.critedge.i:                                      ; preds = %36, %.tail.thread.i
  %indvars.iv.next69.i = add nuw nsw i64 %indvars.iv68.i, 1
  %exitcond71.not.i = icmp eq i64 %indvars.iv.next69.i, 7
  br i1 %exitcond71.not.i, label %.thread, label %.split.i, !llvm.loop !37

.thread:                                          ; preds = %.critedge.us.i, %.critedge.i.us, %.critedge.i
  %61 = tail call i32 (ptr, ...) @error(ptr noundef nonnull @.str.23, ptr noundef nonnull %.01657) #10
  br label %._crit_edge.thread

62:                                               ; preds = %.thread.i, %57, %54
  %.sink = phi i32 [ %50, %.thread.i ], [ %60, %57 ], [ %56, %54 ]
  %.4.ph = phi i32 [ %.3, %.thread.i ], [ %.056, %57 ], [ %.056, %54 ]
  store i32 %.sink, ptr %0, align 4, !tbaa !23
  %sext = shl i64 %5, 32
  %63 = ashr exact i64 %sext, 32
  %64 = getelementptr inbounds i8, ptr %.01657, i64 %63
  br label %65

65:                                               ; preds = %.lr.ph, %62
  %.1 = phi i32 [ %.056, %.lr.ph ], [ %.4.ph, %62 ]
  %.117 = phi ptr [ %.01657, %.lr.ph ], [ %64, %62 ]
  %66 = tail call i64 @strspn(ptr noundef %.117, ptr noundef nonnull @.str.15) #11
  %67 = getelementptr inbounds nuw i8, ptr %.117, i64 %66
  %68 = load i8, ptr %67, align 1, !tbaa !31
  %.not = icmp eq i8 %68, 0
  br i1 %.not, label %._crit_edge, label %.lr.ph, !llvm.loop !40

._crit_edge:                                      ; preds = %65
  %69 = and i32 %.1, 3
  %70 = icmp eq i32 %69, 1
  br i1 %70, label %71, label %._crit_edge.thread

71:                                               ; preds = %._crit_edge
  %72 = load i32, ptr %0, align 4, !tbaa !23
  %73 = and i32 %72, -49
  %74 = or disjoint i32 %73, 16
  store i32 %74, ptr %0, align 4, !tbaa !23
  br label %._crit_edge.thread

._crit_edge.thread:                               ; preds = %2, %.thread, %._crit_edge, %71
  %.2 = phi i32 [ 0, %71 ], [ 0, %._crit_edge ], [ -1, %.thread ], [ 0, %2 ]
  ret i32 %.2
}